target datalayout = "e-m:e-p270:32:32-p271:32:32-p272:64:64-i64:64-i128:128-f80:128-n8:16:32:64-S128"
target triple = "x86_64-pc-linux-gnu"

%struct.TupleTableSlotOps = type { i64, ptr, ptr, ptr, ptr, ptr, ptr, ptr, ptr, ptr, ptr, ptr, ptr }
%struct.FunctionCallInfoBaseData = type { ptr, ptr, ptr, i32, i8, i16, [0 x %struct.NullableDatum] }
%struct.NullableDatum = type { i64, i8 }
%struct.OSAPerGroupState = type { ptr, ptr, ptr, i64, i8 }
%struct.FmgrInfo = type { ptr, i32, i16, i8, i8, i8, ptr, ptr, ptr }
%struct.Aggref = type { %struct.Expr, i32, i32, i32, i32, i32, ptr, ptr, ptr, ptr, ptr, ptr, i8, i8, i8, i8, i32, i32, i32, i32, i32 }
%struct.Expr = type { i32 }
%struct.OSAPerQueryState = type { ptr, ptr, ptr, i8, ptr, ptr, i32, ptr, ptr, ptr, ptr, ptr, ptr, i32, i16, i8, i8, i32, i32, i32, i8, %struct.FmgrInfo }
%struct.TupleTableSlot = type { i32, i16, i16, ptr, ptr, ptr, ptr, ptr, %struct.ItemPointerData, i32 }
%struct.ItemPointerData = type { %struct.BlockIdData, i16 }
%struct.BlockIdData = type { i16, i16 }

; Function Attrs: inlinehint nounwind uwtable
define internal i64 @PointerGetDatum(ptr noundef %0) #2 {
  %2 = alloca ptr, align 8
  store ptr %0, ptr %2, align 8
  %3 = load ptr, ptr %2, align 8
  %4 = ptrtoint ptr %3 to i64
  ret i64 %4
}

; Function Attrs: inlinehint nounwind uwtable
define internal i64 @Int32GetDatum(i32 noundef %0) #2 {
  %2 = alloca i32, align 4
  store i32 %0, ptr %2, align 4
  %3 = load i32, ptr %2, align 4
  %4 = sext i32 %3 to i64
  ret i64 %4
}

; Function Attrs: inlinehint nounwind uwtable
define internal ptr @ExecClearTuple(ptr noundef %0) #2 {
  %2 = alloca ptr, align 8
  store ptr %0, ptr %2, align 8
  %3 = load ptr, ptr %2, align 8
  %4 = getelementptr inbounds nuw %struct.TupleTableSlot, ptr %3, i32 0, i32 3
  %5 = load ptr, ptr %4, align 8
  %6 = getelementptr inbounds nuw %struct.TupleTableSlotOps, ptr %5, i32 0, i32 3
  %7 = load ptr, ptr %6, align 8
  %8 = load ptr, ptr %2, align 8
  call void %7(ptr noundef %8)
  %9 = load ptr, ptr %2, align 8
  ret ptr %9
}

; Function Attrs: inlinehint nounwind uwtable
define internal ptr @DatumGetPointer(i64 noundef %0) #2 {
  %2 = alloca i64, align 8
  store i64 %0, ptr %2, align 8
  %3 = load i64, ptr %2, align 8
  %4 = inttoptr i64 %3 to ptr
  ret ptr %4
}

; Function Attrs: nounwind uwtable
define dso_local i64 @ordered_set_transition_multi(ptr noundef %0) #0 {
  %2 = alloca ptr, align 8
  %3 = alloca ptr, align 8
  %4 = alloca ptr, align 8
  %5 = alloca i32, align 4
  %6 = alloca i32, align 4
  store ptr %0, ptr %2, align 8
  call void @llvm.lifetime.start.p0(i64 8, ptr %3) #8
  call void @llvm.lifetime.start.p0(i64 8, ptr %4) #8
  call void @llvm.lifetime.start.p0(i64 4, ptr %5) #8
  call void @llvm.lifetime.start.p0(i64 4, ptr %6) #8
  %7 = load ptr, ptr %2, align 8
  %8 = getelementptr inbounds nuw %struct.FunctionCallInfoBaseData, ptr %7, i32 0, i32 6
  %9 = getelementptr inbounds [0 x %struct.NullableDatum], ptr %8, i64 0, i64 0
  %10 = getelementptr inbounds nuw %struct.NullableDatum, ptr %9, i32 0, i32 1
  %11 = load i8, ptr %10, align 8, !range !4, !noundef !5
  %12 = trunc i8 %11 to i1
  br i1 %12, label %13, label %16

13:                                               ; preds = %1
  %14 = load ptr, ptr %2, align 8
  %15 = call ptr @ordered_set_startup(ptr noundef %14, i1 noundef zeroext true)
  store ptr %15, ptr %3, align 8
  br label %23

16:                                               ; preds = %1
  %17 = load ptr, ptr %2, align 8
  %18 = getelementptr inbounds nuw %struct.FunctionCallInfoBaseData, ptr %17, i32 0, i32 6
  %19 = getelementptr inbounds [0 x %struct.NullableDatum], ptr %18, i64 0, i64 0
  %20 = getelementptr inbounds nuw %struct.NullableDatum, ptr %19, i32 0, i32 0
  %21 = load i64, ptr %20, align 8
  %22 = call ptr @DatumGetPointer(i64 noundef %21)
  store ptr %22, ptr %3, align 8
  br label %23

23:                                               ; preds = %16, %13
  %24 = load ptr, ptr %3, align 8
  %25 = getelementptr inbounds nuw %struct.OSAPerGroupState, ptr %24, i32 0, i32 0
  %26 = load ptr, ptr %25, align 8
  %27 = getelementptr inbounds nuw %struct.OSAPerQueryState, ptr %26, i32 0, i32 5
  %28 = load ptr, ptr %27, align 8
  store ptr %28, ptr %4, align 8
  %29 = load ptr, ptr %4, align 8
  %30 = call ptr @ExecClearTuple(ptr noundef %29)
  %31 = load ptr, ptr %2, align 8
  %32 = getelementptr inbounds nuw %struct.FunctionCallInfoBaseData, ptr %31, i32 0, i32 5
  %33 = load i16, ptr %32, align 2
  %34 = sext i16 %33 to i32
  %35 = sub i32 %34, 1
  store i32 %35, ptr %5, align 4
  store i32 0, ptr %6, align 4
  br label %36

36:                                               ; preds = %71, %23
  %37 = load i32, ptr %6, align 4
  %38 = load i32, ptr %5, align 4
  %39 = icmp slt i32 %37, %38
  br i1 %39, label %40, label %74

40:                                               ; preds = %36
  %41 = load ptr, ptr %2, align 8
  %42 = getelementptr inbounds nuw %struct.FunctionCallInfoBaseData, ptr %41, i32 0, i32 6
  %43 = load i32, ptr %6, align 4
  %44 = add i32 %43, 1
  %45 = sext i32 %44 to i64
  %46 = getelementptr inbounds [0 x %struct.NullableDatum], ptr %42, i64 0, i64 %45
  %47 = getelementptr inbounds nuw %struct.NullableDatum, ptr %46, i32 0, i32 0
  %48 = load i64, ptr %47, align 8
  %49 = load ptr, ptr %4, align 8
  %50 = getelementptr inbounds nuw %struct.TupleTableSlot, ptr %49, i32 0, i32 5
  %51 = load ptr, ptr %50, align 8
  %52 = load i32, ptr %6, align 4
  %53 = sext i32 %52 to i64
  %54 = getelementptr inbounds i64, ptr %51, i64 %53
  store i64 %48, ptr %54, align 8
  %55 = load ptr, ptr %2, align 8
  %56 = getelementptr inbounds nuw %struct.FunctionCallInfoBaseData, ptr %55, i32 0, i32 6
  %57 = load i32, ptr %6, align 4
  %58 = add i32 %57, 1
  %59 = sext i32 %58 to i64
  %60 = getelementptr inbounds [0 x %struct.NullableDatum], ptr %56, i64 0, i64 %59
  %61 = getelementptr inbounds nuw %struct.NullableDatum, ptr %60, i32 0, i32 1
  %62 = load i8, ptr %61, align 8, !range !4, !noundef !5
  %63 = trunc i8 %62 to i1
  %64 = load ptr, ptr %4, align 8
  %65 = getelementptr inbounds nuw %struct.TupleTableSlot, ptr %64, i32 0, i32 6
  %66 = load ptr, ptr %65, align 8
  %67 = load i32, ptr %6, align 4
  %68 = sext i32 %67 to i64
  %69 = getelementptr inbounds i8, ptr %66, i64 %68
  %70 = zext i1 %63 to i8
  store i8 %70, ptr %69, align 1
  br label %71

71:                                               ; preds = %40
  %72 = load i32, ptr %6, align 4
  %73 = add i32 %72, 1
  store i32 %73, ptr %6, align 4
  br label %36, !llvm.loop !9

74:                                               ; preds = %36
  %75 = load ptr, ptr %3, align 8
  %76 = getelementptr inbounds nuw %struct.OSAPerGroupState, ptr %75, i32 0, i32 0
  %77 = load ptr, ptr %76, align 8
  %78 = getelementptr inbounds nuw %struct.OSAPerQueryState, ptr %77, i32 0, i32 0
  %79 = load ptr, ptr %78, align 8
  %80 = getelementptr inbounds nuw %struct.Aggref, ptr %79, i32 0, i32 14
  %81 = load i8, ptr %80, align 2
  %82 = sext i8 %81 to i32
  %83 = icmp eq i32 %82, 104
  br i1 %83, label %84, label %100

84:                                               ; preds = %74
  %85 = call i64 @Int32GetDatum(i32 noundef 0)
  %86 = load ptr, ptr %4, align 8
  %87 = getelementptr inbounds nuw %struct.TupleTableSlot, ptr %86, i32 0, i32 5
  %88 = load ptr, ptr %87, align 8
  %89 = load i32, ptr %6, align 4
  %90 = sext i32 %89 to i64
  %91 = getelementptr inbounds i64, ptr %88, i64 %90
  store i64 %85, ptr %91, align 8
  %92 = load ptr, ptr %4, align 8
  %93 = getelementptr inbounds nuw %struct.TupleTableSlot, ptr %92, i32 0, i32 6
  %94 = load ptr, ptr %93, align 8
  %95 = load i32, ptr %6, align 4
  %96 = sext i32 %95 to i64
  %97 = getelementptr inbounds i8, ptr %94, i64 %96
  store i8 0, ptr %97, align 1
  %98 = load i32, ptr %6, align 4
  %99 = add i32 %98, 1
  store i32 %99, ptr %6, align 4
  br label %100

100:                                              ; preds = %84, %74
  %101 = load ptr, ptr %4, align 8
  %102 = call ptr @ExecStoreVirtualTuple(ptr noundef %101)
  %103 = load ptr, ptr %3, align 8
  %104 = getelementptr inbounds nuw %struct.OSAPerGroupState, ptr %103, i32 0, i32 2
  %105 = load ptr, ptr %104, align 8
  %106 = load ptr, ptr %4, align 8
  call void @tuplesort_puttupleslot(ptr noundef %105, ptr noundef %106)
  %107 = load ptr, ptr %3, align 8
  %108 = getelementptr inbounds nuw %struct.OSAPerGroupState, ptr %107, i32 0, i32 3
  %109 = load i64, ptr %108, align 8
  %110 = add i64 %109, 1
  store i64 %110, ptr %108, align 8
  %111 = load ptr, ptr %3, align 8
  %112 = call i64 @PointerGetDatum(ptr noundef %111)
  call void @llvm.lifetime.end.p0(i64 4, ptr %6) #8
  call void @llvm.lifetime.end.p0(i64 4, ptr %5) #8
  call void @llvm.lifetime.end.p0(i64 8, ptr %4) #8
  call void @llvm.lifetime.end.p0(i64 8, ptr %3) #8
  ret i64 %112
}