; Function Attrs: nounwind uwtable
define dso_local noundef i64 @ordered_set_transition_multi(ptr noundef %0) local_unnamed_addr #0 {
  %2 = getelementptr inbounds nuw i8, ptr %0, i64 32
  %3 = getelementptr inbounds nuw i8, ptr %0, i64 40
  %4 = load i8, ptr %3, align 8, !range !4, !noundef !5
  %5 = trunc nuw i8 %4 to i1
  br i1 %5, label %6, label %8

6:                                                ; preds = %1
  %7 = tail call fastcc ptr @ordered_set_startup(ptr noundef nonnull %0, i1 noundef zeroext true)
  br label %11

8:                                                ; preds = %1
  %9 = load i64, ptr %2, align 8
  %10 = inttoptr i64 %9 to ptr
  br label %11

11:                                               ; preds = %8, %6
  %.027 = phi ptr [ %7, %6 ], [ %10, %8 ]
  %12 = load ptr, ptr %.027, align 8
  %13 = getelementptr inbounds nuw i8, ptr %12, i64 40
  %14 = load ptr, ptr %13, align 8
  %15 = getelementptr inbounds nuw i8, ptr %14, i64 8
  %16 = load ptr, ptr %15, align 8
  %17 = getelementptr inbounds nuw i8, ptr %16, i64 24
  %18 = load ptr, ptr %17, align 8
  tail call void %18(ptr noundef %14) #10
  %19 = getelementptr inbounds nuw i8, ptr %0, i64 30
  %20 = load i16, ptr %19, align 2
  %21 = sext i16 %20 to i32
  %22 = add nsw i32 %21, -1
  %23 = icmp sgt i16 %20, 1
  br i1 %23, label %.lr.ph, label %._crit_edge

.lr.ph:                                           ; preds = %11
  %24 = getelementptr inbounds nuw i8, ptr %14, i64 24
  %25 = getelementptr inbounds nuw i8, ptr %14, i64 32
  %wide.trip.count = zext i32 %22 to i64
  br label %26

26:                                               ; preds = %.lr.ph, %26
  %indvars.iv = phi i64 [ 0, %.lr.ph ], [ %indvars.iv.next, %26 ]
  %indvars.iv.next = add nuw nsw i64 %indvars.iv, 1
  %27 = getelementptr inbounds nuw [0 x %struct.NullableDatum], ptr %2, i64 0, i64 %indvars.iv.next
  %28 = load i64, ptr %27, align 8
  %29 = load ptr, ptr %24, align 8
  %30 = getelementptr inbounds nuw i64, ptr %29, i64 %indvars.iv
  store i64 %28, ptr %30, align 8
  %31 = getelementptr inbounds nuw i8, ptr %27, i64 8
  %32 = load i8, ptr %31, align 8, !range !4, !noundef !5
  %33 = load ptr, ptr %25, align 8
  %34 = getelementptr inbounds nuw i8, ptr %33, i64 %indvars.iv
  store i8 %32, ptr %34, align 1
  %exitcond.not = icmp eq i64 %indvars.iv.next, %wide.trip.count
  br i1 %exitcond.not, label %._crit_edge.loopexit, label %26, !llvm.loop !8

._crit_edge.loopexit:                             ; preds = %26
  %35 = zext nneg i32 %22 to i64
  br label %._crit_edge

._crit_edge:                                      ; preds = %._crit_edge.loopexit, %11
  %.0.lcssa = phi i64 [ 0, %11 ], [ %35, %._crit_edge.loopexit ]
  %36 = load ptr, ptr %.027, align 8
  %37 = load ptr, ptr %36, align 8
  %38 = getelementptr inbounds nuw i8, ptr %37, i64 74
  %39 = load i8, ptr %38, align 2
  %40 = icmp eq i8 %39, 104
  br i1 %40, label %41, label %48

41:                                               ; preds = %._crit_edge
  %42 = getelementptr inbounds nuw i8, ptr %14, i64 24
  %43 = load ptr, ptr %42, align 8
  %44 = getelementptr inbounds nuw i64, ptr %43, i64 %.0.lcssa
  store i64 0, ptr %44, align 8
  %45 = getelementptr inbounds nuw i8, ptr %14, i64 32
  %46 = load ptr, ptr %45, align 8
  %47 = getelementptr inbounds nuw i8, ptr %46, i64 %.0.lcssa
  store i8 0, ptr %47, align 1
  br label %48

48:                                               ; preds = %41, %._crit_edge
  %49 = tail call ptr @ExecStoreVirtualTuple(ptr noundef nonnull %14) #10
  %50 = getelementptr inbounds nuw i8, ptr %.027, i64 16
  %51 = load ptr, ptr %50, align 8
  tail call void @tuplesort_puttupleslot(ptr noundef %51, ptr noundef nonnull %14) #10
  %52 = getelementptr inbounds nuw i8, ptr %.027, i64 24
  %53 = load i64, ptr %52, align 8
  %54 = add i64 %53, 1
  store i64 %54, ptr %52, align 8
  %55 = ptrtoint ptr %.027 to i64
  ret i64 %55
}